target datalayout = "e-m:e-p270:32:32-p271:32:32-p272:64:64-i64:64-i128:128-f80:128-n8:16:32:64-S128"
target triple = "x86_64-unknown-linux-gnu"

%"class.zmq::own_t.base" = type <{ %"class.zmq::object_t.base", [4 x i8], %"struct.zmq::options_t", i8, [7 x i8], %"class.zmq::atomic_counter_t", i64, ptr, %"class.std::set.28", i32 }>
%"class.zmq::object_t.base" = type <{ ptr, ptr, i32 }>
%"struct.zmq::options_t" = type { i32, i32, i64, i8, [256 x i8], i32, i32, i32, i32, i32, i32, i32, i32, i8, %"struct.zmq::atomic_value_t", i32, i32, i32, i32, i32, i32, i64, i32, i32, i8, i32, i8, i8, i8, i8, i8, %"class.std::__cxx11::basic_string", %"class.std::__cxx11::basic_string", %"class.std::__cxx11::basic_string", i32, i32, i32, i32, %"class.std::vector", %"class.std::set", %"class.std::set", %"class.std::set.6", i32, i32, %"class.std::__cxx11::basic_string", %"class.std::__cxx11::basic_string", %"class.std::__cxx11::basic_string", [32 x i8], [32 x i8], [32 x i8], %"class.std::__cxx11::basic_string", %"class.std::__cxx11::basic_string", i32, i32, i8, i32, i8, i32, i8, i16, i32, i32, i32, %"class.std::__cxx11::basic_string", i8, i8, i8, i32, i32, i8, i32, %"class.std::map", i32, %"class.std::__cxx11::basic_string", %"class.std::__cxx11::basic_string", %"class.std::__cxx11::basic_string", %"class.std::__cxx11::basic_string", i8, %"class.std::vector.21", i8, %"class.std::vector.21", i8, %"class.std::vector.21", i8, i32, i8, i32, i32, i32, i32, i32, i8, i32 }
%"struct.zmq::atomic_value_t" = type { %"struct.std::atomic" }
%"struct.std::atomic" = type { %"struct.std::__atomic_base" }
%"struct.std::__atomic_base" = type { i32 }
%"class.std::vector" = type { %"struct.std::_Vector_base" }
%"struct.std::_Vector_base" = type { %"struct.std::_Vector_base<zmq::tcp_address_mask_t, std::allocator<zmq::tcp_address_mask_t>>::_Vector_impl" }
%"struct.std::_Vector_base<zmq::tcp_address_mask_t, std::allocator<zmq::tcp_address_mask_t>>::_Vector_impl" = type { %"struct.std::_Vector_base<zmq::tcp_address_mask_t, std::allocator<zmq::tcp_address_mask_t>>::_Vector_impl_data" }
%"struct.std::_Vector_base<zmq::tcp_address_mask_t, std::allocator<zmq::tcp_address_mask_t>>::_Vector_impl_data" = type { ptr, ptr, ptr }
%"class.std::set" = type { %"class.std::_Rb_tree" }
%"class.std::_Rb_tree" = type { %"struct.std::_Rb_tree<unsigned int, unsigned int, std::_Identity<unsigned int>, std::less<unsigned int>>::_Rb_tree_impl" }
%"struct.std::_Rb_tree<unsigned int, unsigned int, std::_Identity<unsigned int>, std::less<unsigned int>>::_Rb_tree_impl" = type { %"struct.std::_Rb_tree_key_compare", %"struct.std::_Rb_tree_header" }
%"struct.std::_Rb_tree_key_compare" = type { %"struct.std::less" }
%"struct.std::less" = type { i8 }
%"struct.std::_Rb_tree_header" = type { %"struct.std::_Rb_tree_node_base", i64 }
%"struct.std::_Rb_tree_node_base" = type { i32, ptr, ptr, ptr }
%"class.std::set.6" = type { %"class.std::_Rb_tree.7" }
%"class.std::_Rb_tree.7" = type { %"struct.std::_Rb_tree<int, int, std::_Identity<int>, std::less<int>>::_Rb_tree_impl" }
%"struct.std::_Rb_tree<int, int, std::_Identity<int>, std::less<int>>::_Rb_tree_impl" = type { %"struct.std::_Rb_tree_key_compare.11", %"struct.std::_Rb_tree_header" }
%"struct.std::_Rb_tree_key_compare.11" = type { %"struct.std::less.12" }
%"struct.std::less.12" = type { i8 }
%"class.std::map" = type { %"class.std::_Rb_tree.14" }
%"class.std::_Rb_tree.14" = type { %"struct.std::_Rb_tree<std::__cxx11::basic_string<char>, std::pair<const std::__cxx11::basic_string<char>, std::__cxx11::basic_string<char>>, std::_Select1st<std::pair<const std::__cxx11::basic_string<char>, std::__cxx11::basic_string<char>>>, std::less<std::__cxx11::basic_string<char>>>::_Rb_tree_impl" }
%"struct.std::_Rb_tree<std::__cxx11::basic_string<char>, std::pair<const std::__cxx11::basic_string<char>, std::__cxx11::basic_string<char>>, std::_Select1st<std::pair<const std::__cxx11::basic_string<char>, std::__cxx11::basic_string<char>>>, std::less<std::__cxx11::basic_string<char>>>::_Rb_tree_impl" = type { %"struct.std::_Rb_tree_key_compare.18", %"struct.std::_Rb_tree_header" }
%"struct.std::_Rb_tree_key_compare.18" = type { %"struct.std::less.19" }
%"struct.std::less.19" = type { i8 }
%"class.std::vector.21" = type { %"struct.std::_Vector_base.22" }
%"struct.std::_Vector_base.22" = type { %"struct.std::_Vector_base<unsigned char, std::allocator<unsigned char>>::_Vector_impl" }
%"struct.std::_Vector_base<unsigned char, std::allocator<unsigned char>>::_Vector_impl" = type { %"struct.std::_Vector_base<unsigned char, std::allocator<unsigned char>>::_Vector_impl_data" }
%"struct.std::_Vector_base<unsigned char, std::allocator<unsigned char>>::_Vector_impl_data" = type { ptr, ptr, ptr }
%"class.zmq::atomic_counter_t" = type { %"struct.std::atomic.26", [4 x i8] }
%"struct.std::atomic.26" = type { %"struct.std::__atomic_base.27" }
%"struct.std::__atomic_base.27" = type { i32 }
%"class.std::set.28" = type { %"class.std::_Rb_tree.29" }
%"class.std::_Rb_tree.29" = type { %"struct.std::_Rb_tree<zmq::own_t *, zmq::own_t *, std::_Identity<zmq::own_t *>, std::less<zmq::own_t *>>::_Rb_tree_impl" }
%"struct.std::_Rb_tree<zmq::own_t *, zmq::own_t *, std::_Identity<zmq::own_t *>, std::less<zmq::own_t *>>::_Rb_tree_impl" = type { %"struct.std::_Rb_tree_key_compare.33", %"struct.std::_Rb_tree_header" }
%"struct.std::_Rb_tree_key_compare.33" = type { %"struct.std::less.34" }
%"struct.std::less.34" = type { i8 }
%"struct.zmq::i_poll_events" = type { ptr }
%"struct.zmq::i_pipe_events" = type { ptr }
%"class.std::__cxx11::basic_string" = type { %"struct.std::__cxx11::basic_string<char>::_Alloc_hider", i64, %union.anon }
%"struct.std::__cxx11::basic_string<char>::_Alloc_hider" = type { ptr }
%union.anon = type { i64, [8 x i8] }
%"class.zmq::req_session_t" = type <{ %"class.zmq::session_base_t", i32, [4 x i8] }>
%"class.zmq::session_base_t" = type { %"class.zmq::own_t.base", %"class.zmq::io_object_t", %"struct.zmq::i_pipe_events", i8, ptr, ptr, %"class.std::set.60", i8, i8, ptr, ptr, ptr, i8, ptr, %"class.std::__cxx11::basic_string" }
%"class.zmq::io_object_t" = type { %"struct.zmq::i_poll_events", ptr }
%"class.std::set.60" = type { %"class.std::_Rb_tree.61" }
%"class.std::_Rb_tree.61" = type { %"struct.std::_Rb_tree<zmq::pipe_t *, zmq::pipe_t *, std::_Identity<zmq::pipe_t *>, std::less<zmq::pipe_t *>>::_Rb_tree_impl" }
%"struct.std::_Rb_tree<zmq::pipe_t *, zmq::pipe_t *, std::_Identity<zmq::pipe_t *>, std::less<zmq::pipe_t *>>::_Rb_tree_impl" = type { %"struct.std::_Rb_tree_key_compare.65", %"struct.std::_Rb_tree_header" }
%"struct.std::_Rb_tree_key_compare.65" = type { %"struct.std::less.66" }
%"struct.std::less.66" = type { i8 }

; Function Attrs: mustprogress uwtable
define void @_ZN3zmq13req_session_tC2EPNS_11io_thread_tEbPNS_13socket_base_tERKNS_9options_tEPNS_9address_tE(ptr noundef nonnull align 8 dereferenceable(1632) %this, ptr noundef %io_thread_, i1 noundef zeroext %connect_, ptr noundef %socket_, ptr noundef nonnull align 8 dereferenceable(1336) %options_, ptr noundef %addr_) unnamed_addr #0 align 2 {
entry:
  %this.addr = alloca ptr, align 8
  %io_thread_.addr = alloca ptr, align 8
  %connect_.addr = alloca i8, align 1
  %socket_.addr = alloca ptr, align 8
  %options_.addr = alloca ptr, align 8
  %addr_.addr = alloca ptr, align 8
  store ptr %this, ptr %this.addr, align 8
  store ptr %io_thread_, ptr %io_thread_.addr, align 8
  %frombool = zext i1 %connect_ to i8
  store i8 %frombool, ptr %connect_.addr, align 1
  store ptr %socket_, ptr %socket_.addr, align 8
  store ptr %options_, ptr %options_.addr, align 8
  store ptr %addr_, ptr %addr_.addr, align 8
  %this1 = load ptr, ptr %this.addr, align 8
  %0 = load ptr, ptr %io_thread_.addr, align 8
  %1 = load i8, ptr %connect_.addr, align 1
  %tobool = trunc i8 %1 to i1
  %2 = load ptr, ptr %socket_.addr, align 8
  %3 = load ptr, ptr %options_.addr, align 8
  %4 = load ptr, ptr %addr_.addr, align 8
  call void @_ZN3zmq14session_base_tC2EPNS_11io_thread_tEbPNS_13socket_base_tERKNS_9options_tEPNS_9address_tE(ptr noundef nonnull align 8 dereferenceable(1624) %this1, ptr noundef %0, i1 noundef zeroext %tobool, ptr noundef %2, ptr noundef nonnull align 8 dereferenceable(1336) %3, ptr noundef %4)
  store ptr getelementptr inbounds ({ [34 x ptr], [7 x ptr], [8 x ptr] }, ptr @_ZTVN3zmq13req_session_tE, i32 0, i32 0, i32 2), ptr %this1, align 8
  %add.ptr = getelementptr inbounds i8, ptr %this1, i64 1448
  store ptr getelementptr inbounds ({ [34 x ptr], [7 x ptr], [8 x ptr] }, ptr @_ZTVN3zmq13req_session_tE, i32 0, i32 1, i32 2), ptr %add.ptr, align 8
  %add.ptr2 = getelementptr inbounds i8, ptr %this1, i64 1464
  store ptr getelementptr inbounds ({ [34 x ptr], [7 x ptr], [8 x ptr] }, ptr @_ZTVN3zmq13req_session_tE, i32 0, i32 2, i32 2), ptr %add.ptr2, align 8
  %_state = getelementptr inbounds %"class.zmq::req_session_t", ptr %this1, i32 0, i32 1
  store i32 0, ptr %_state, align 8
  ret void
}