; Function Attrs: mustprogress uwtable
define void @_ZN3zmq13req_session_tC2EPNS_11io_thread_tEbPNS_13socket_base_tERKNS_9options_tEPNS_9address_tE(ptr noundef nonnull align 8 dereferenceable(1632) %this, ptr noundef %io_thread_, i1 noundef zeroext %connect_, ptr noundef %socket_, ptr noundef nonnull align 8 dereferenceable(1336) %options_, ptr noundef %addr_) unnamed_addr #0 align 2 {
entry:
  tail call void @_ZN3zmq14session_base_tC2EPNS_11io_thread_tEbPNS_13socket_base_tERKNS_9options_tEPNS_9address_tE(ptr noundef nonnull align 8 dereferenceable(1624) %this, ptr noundef %io_thread_, i1 noundef zeroext %connect_, ptr noundef %socket_, ptr noundef nonnull align 8 dereferenceable(1336) %options_, ptr noundef %addr_)
  store ptr getelementptr inbounds ({ [34 x ptr], [7 x ptr], [8 x ptr] }, ptr @_ZTVN3zmq13req_session_tE, i64 0, i32 0, i64 2), ptr %this, align 8
  %add.ptr = getelementptr inbounds i8, ptr %this, i64 1448
  store ptr getelementptr inbounds ({ [34 x ptr], [7 x ptr], [8 x ptr] }, ptr @_ZTVN3zmq13req_session_tE, i64 0, i32 1, i64 2), ptr %add.ptr, align 8
  %add.ptr2 = getelementptr inbounds i8, ptr %this, i64 1464
  store ptr getelementptr inbounds ({ [34 x ptr], [7 x ptr], [8 x ptr] }, ptr @_ZTVN3zmq13req_session_tE, i64 0, i32 2, i64 2), ptr %add.ptr2, align 8
  %_state = getelementptr inbounds i8, ptr %this, i64 1624
  store i32 0, ptr %_state, align 8
  ret void
}